target datalayout = "e-m:e-p270:32:32-p271:32:32-p272:64:64-i64:64-i128:128-f80:128-n8:16:32:64-S128"
target triple = "x86_64-pc-linux-gnu"

%class.b3Point2PointConstraint = type { %class.b3TypedConstraint, %class.b3Vector3, %class.b3Vector3, i32, float, float, %struct.b3ConstraintSetting, [8 x i8] }
%class.b3TypedConstraint = type { ptr, %struct.b3TypedObject, i32, %union.anon, float, i8, i8, i32, i32, i32, float, float, ptr }
%struct.b3TypedObject = type { i32 }
%union.anon = type { ptr }
%class.b3Vector3 = type { %union.anon.0 }
%union.anon.0 = type { [4 x float] }
%struct.b3ConstraintSetting = type { float, float, float }

; Function Attrs: mustprogress nounwind uwtable
define dso_local noundef float @_ZNK23b3Point2PointConstraint8getParamEii(ptr noundef nonnull align 16 dereferenceable(120) %0, i32 noundef %1, i32 noundef %2) unnamed_addr #3 align 2 {
  %4 = alloca ptr, align 8
  %5 = alloca i32, align 4
  %6 = alloca i32, align 4
  %7 = alloca float, align 4
  store ptr %0, ptr %4, align 8, !tbaa !4
  store i32 %1, ptr %5, align 4, !tbaa !9
  store i32 %2, ptr %6, align 4, !tbaa !9
  %8 = load ptr, ptr %4, align 8
  call void @llvm.lifetime.start.p0(i64 4, ptr %7) #12
  store float 0x47EFFFFFE0000000, ptr %7, align 4, !tbaa !44
  %9 = load i32, ptr %6, align 4, !tbaa !9
  %10 = icmp ne i32 %9, -1
  br i1 %10, label %11, label %12

11:                                               ; preds = %3
  br label %22

12:                                               ; preds = %3
  %13 = load i32, ptr %5, align 4, !tbaa !9
  switch i32 %13, label %20 [
    i32 1, label %14
    i32 2, label %14
    i32 3, label %17
    i32 4, label %17
  ]

14:                                               ; preds = %12, %12
  %15 = getelementptr inbounds nuw %class.b3Point2PointConstraint, ptr %8, i32 0, i32 4
  %16 = load float, ptr %15, align 4, !tbaa !55
  store float %16, ptr %7, align 4, !tbaa !44
  br label %21

17:                                               ; preds = %12, %12
  %18 = getelementptr inbounds nuw %class.b3Point2PointConstraint, ptr %8, i32 0, i32 5
  %19 = load float, ptr %18, align 8, !tbaa !61
  store float %19, ptr %7, align 4, !tbaa !44
  br label %21

20:                                               ; preds = %12
  br label %21

21:                                               ; preds = %20, %17, %14
  br label %22

22:                                               ; preds = %21, %11
  %23 = load float, ptr %7, align 4, !tbaa !44
  call void @llvm.lifetime.end.p0(i64 4, ptr %7) #12
  ret float %23
}