; Function Attrs: mustprogress nofree norecurse nosync nounwind willreturn memory(argmem: read) uwtable
define dso_local noundef float @_ZNK23b3Point2PointConstraint8getParamEii(ptr noundef nonnull readonly align 16 captures(none) dereferenceable(120) %0, i32 noundef %1, i32 noundef %2) unnamed_addr #9 align 2 {
  %.not = icmp eq i32 %2, -1
  br i1 %.not, label %4, label %11

4:                                                ; preds = %3
  switch i32 %1, label %11 [
    i32 1, label %5
    i32 2, label %5
    i32 3, label %8
    i32 4, label %8
  ]

5:                                                ; preds = %4, %4
  %6 = getelementptr inbounds nuw i8, ptr %0, i64 100
  %7 = load float, ptr %6, align 4, !tbaa !52
  br label %11

8:                                                ; preds = %4, %4
  %9 = getelementptr inbounds nuw i8, ptr %0, i64 104
  %10 = load float, ptr %9, align 8, !tbaa !43
  br label %11

11:                                               ; preds = %5, %8, %4, %3
  %.0 = phi float [ 0x47EFFFFFE0000000, %3 ], [ 0x47EFFFFFE0000000, %4 ], [ %10, %8 ], [ %7, %5 ]
  ret float %.0
}